Certificate Request:
    Data:
        Version: 1 (0x0)
        Subject: C = FR, O = NodeOPCUA, CN = NodeOPCUA
        Subject Public Key Info:
            Public Key Algorithm: rsaEncryption
                Public-Key: (4096 bit)
                Modulus:
                    00:ac:f1:ab:b5:4a:55:05:39:8b:28:61:4f:51:44:
                    4b:63:af:fc:5f:67:07:9f:79:54:cb:61:41:c1:3e:
                    5a:3e:e6:6d:8b:0d:46:f6:0f:59:0d:6c:95:0a:eb:
                    66:19:88:c2:36:4e:28:14:65:59:f7:ba:c6:81:bf:
                    25:6f:54:8b:88:54:b8:e9:e5:35:be:79:c9:bf:d2:
                    47:49:6c:2e:92:cc:47:72:74:50:ee:94:b2:af:5b:
                    1a:43:4c:bd:9f:91:c3:b4:b5:72:bd:9b:d8:55:af:
                    5d:b3:d1:1c:e9:31:5d:af:e4:ec:b5:57:5c:65:d6:
                    62:81:fb:0e:f5:a7:17:98:9d:21:3e:4e:34:21:e6:
                    b0:95:ec:ea:5b:88:45:18:1e:ad:a9:af:d5:8b:19:
                    40:1b:2a:cc:6c:22:40:34:f2:be:4c:10:2b:a7:e0:
                    6c:88:bd:5b:27:c5:69:76:5b:f8:9c:13:a7:ec:7b:
                    93:f1:88:36:b7:2d:59:51:47:15:34:ad:56:30:6e:
                    88:ff:13:7d:3f:a8:b4:50:5c:cf:b8:fa:ef:1d:c0:
                    8b:e1:5f:fb:92:67:77:20:ea:96:89:5b:34:98:b0:
                    c7:a7:90:76:ff:bd:e9:bf:ea:aa:50:4e:45:01:fe:
                    c4:cf:aa:8f:0b:5e:f9:71:60:b2:9f:45:f0:e4:4d:
                    09:00:8b:c7:fb:ce:d7:19:09:74:55:e4:b6:17:61:
                    75:80:e8:db:91:fc:f3:5c:f5:6a:4e:c6:7f:07:cf:
                    8d:31:66:c3:2b:9c:9c:5e:5d:72:50:0d:bf:e0:15:
                    a4:01:f1:d2:16:47:33:2b:fd:84:49:e5:f9:d7:af:
                    92:08:eb:c8:1f:5f:bf:82:e2:3a:4b:47:36:a2:cb:
                    1d:22:11:22:4c:58:67:fe:46:d9:59:79:1a:c5:46:
                    25:2a:e6:7a:23:f7:26:89:da:c7:4f:fc:34:e6:2d:
                    c0:e0:82:8d:bb:23:d6:68:b6:ba:dc:6f:77:9a:ba:
                    2f:48:7c:93:e7:5d:1b:ac:ad:dd:23:cb:b5:10:c7:
                    ca:0f:43:7c:c5:2b:4b:9d:43:2d:6f:98:bf:7a:6a:
                    4f:9e:7a:e0:3a:e1:3e:38:69:0b:0f:d9:19:d1:85:
                    85:74:67:18:11:c1:95:3a:d8:75:e5:69:36:8e:c3:
                    be:42:79:14:18:32:d1:92:db:53:b1:9e:b1:30:63:
                    f5:f4:64:82:3d:26:be:87:b6:5c:7e:b9:e1:e1:0c:
                    a7:16:24:07:23:55:a8:19:20:31:ed:09:8b:14:16:
                    9c:52:40:de:08:61:b9:65:42:56:57:51:cc:0a:2f:
                    15:69:e9:00:ce:c7:a2:56:fa:99:ed:5a:78:99:d6:
                    c0:a7:9f
                Exponent: 65537 (0x10001)
        Attributes:
            Requested Extensions:
                X509v3 Basic Constraints: 
                    CA:FALSE
                X509v3 Key Usage: critical
                    Certificate Sign, CRL Sign
                X509v3 Subject Alternative Name: 
                    URI:urn:ramses-linux:NodeOPCUA-Client, DNS:ramses-linux, IP Address:127.0.0.1
    Signature Algorithm: sha256WithRSAEncryption
    Signature Value:
        67:fa:06:92:f0:c0:e0:f3:0e:9c:7d:1f:bf:43:dc:99:79:14:
        c0:d1:76:f7:71:a7:83:95:97:97:80:5e:c8:58:17:bc:55:e1:
        d1:36:98:74:64:a0:88:7b:3b:d8:55:36:56:20:03:e8:2d:33:
        53:46:41:b3:21:34:45:56:59:3a:c3:4c:b9:b4:14:21:ed:ca:
        45:ff:08:52:57:d6:e1:93:d1:2c:60:92:7f:9a:5f:45:d6:8c:
        c5:7d:94:f6:82:f7:29:14:fd:c2:63:f1:6b:12:b5:6c:17:d5:
        35:6c:df:ba:fe:d7:e5:48:d4:e6:47:39:db:31:9c:0a:b6:3c:
        2e:c2:99:e8:17:cf:29:50:25:fd:e8:79:89:69:3a:26:00:b2:
        a7:99:43:42:01:d3:2e:1e:10:61:93:7c:b2:6e:77:f9:46:88:
        dc:d4:8e:30:69:86:ee:b2:0a:81:86:64:93:36:00:cf:14:11:
        23:04:56:39:89:ed:6f:d6:a4:64:34:ea:02:e4:17:44:c0:3e:
        eb:76:1d:7d:95:25:8e:27:6d:06:6f:e7:3b:32:d6:80:10:eb:
        63:a0:70:04:2e:21:21:17:aa:2d:a1:a1:38:85:33:4f:db:49:
        05:7c:99:91:57:3f:23:2f:4b:d9:73:d5:29:e1:f3:63:a6:c6:
        52:34:96:b3:97:89:de:7d:9f:cd:de:f3:8e:66:4d:78:b2:ae:
        81:53:15:98:7c:c1:03:c6:b9:fa:51:e9:46:5c:49:6c:8c:6c:
        02:e5:f7:5d:f0:01:75:e4:d1:0d:b6:82:47:c1:a7:ea:e1:10:
        18:6c:b7:bd:ac:d9:da:c3:f9:18:ea:3a:62:1f:01:7f:82:37:
        b4:98:63:c4:04:b3:ba:2a:da:d7:4e:02:57:c2:64:ba:26:79:
        a5:1d:5f:22:08:66:7c:98:ea:a1:28:9a:2d:b5:c4:33:5e:c6:
        b4:ed:ee:10:9c:9b:b8:53:27:44:de:36:15:ec:60:c2:f6:c0:
        6d:ae:a3:9e:47:ad:eb:44:91:34:83:29:04:c3:d5:c6:7f:e7:
        53:c0:60:fa:b1:ea:b0:d3:e1:6d:e2:6f:04:65:1f:73:84:25:
        38:ef:3f:4b:e1:08:f3:bd:a9:e4:77:f1:bd:57:51:29:d5:28:
        72:8a:b0:61:d0:08:34:5d:09:34:11:46:d7:30:2c:0d:dd:41:
        dc:f9:c6:66:7b:09:a6:26:af:e5:59:03:13:18:33:65:54:f0:
        f3:aa:1a:bc:ee:dd:f0:39:fe:c1:83:3f:45:9c:ce:00:59:2f:
        d7:06:ef:1c:13:24:fb:70:d3:18:12:17:8f:b5:f8:9a:a5:df:
        42:8e:5b:89:b5:dc:b1:35
-----BEGIN CERTIFICATE REQUEST-----
MIIE6DCCAtACAQAwNTELMAkGA1UEBhMCRlIxEjAQBgNVBAoMCU5vZGVPUENVQTES
MBAGA1UEAwwJTm9kZU9QQ1VBMIICIjANBgkqhkiG9w0BAQEFAAOCAg8AMIICCgKC
AgEArPGrtUpVBTmLKGFPUURLY6/8X2cHn3lUy2FBwT5aPuZtiw1G9g9ZDWyVCutm
GYjCNk4oFGVZ97rGgb8lb1SLiFS46eU1vnnJv9JHSWwuksxHcnRQ7pSyr1saQ0y9
n5HDtLVyvZvYVa9ds9Ec6TFdr+TstVdcZdZigfsO9acXmJ0hPk40IeawlezqW4hF
GB6tqa/VixlAGyrMbCJANPK+TBArp+BsiL1bJ8Vpdlv4nBOn7HuT8Yg2ty1ZUUcV
NK1WMG6I/xN9P6i0UFzPuPrvHcCL4V/7kmd3IOqWiVs0mLDHp5B2/73pv+qqUE5F
Af7Ez6qPC175cWCyn0Xw5E0JAIvH+87XGQl0VeS2F2F1gOjbkfzzXPVqTsZ/B8+N
MWbDK5ycXl1yUA2/4BWkAfHSFkczK/2ESeX516+SCOvIH1+/guI6S0c2ossdIhEi
TFhn/kbZWXkaxUYlKuZ6I/cmidrHT/w05i3A4IKNuyPWaLa63G93mrovSHyT510b
rK3dI8u1EMfKD0N8xStLnUMtb5i/empPnnrgOuE+OGkLD9kZ0YWFdGcYEcGVOth1
5Wk2jsO+QnkUGDLRkttTsZ6xMGP19GSCPSa+h7Zcfrnh4QynFiQHI1WoGSAx7QmL
FBacUkDeCGG5ZUJWV1HMCi8VaekAzseiVvqZ7Vp4mdbAp58CAwEAAaBuMGwGCSqG
SIb3DQEJDjFfMF0wCQYDVR0TBAIwADAOBgNVHQ8BAf8EBAMCAQYwQAYDVR0RBDkw
N4YhdXJuOnJhbXNlcy1saW51eDpOb2RlT1BDVUEtQ2xpZW50ggxyYW1zZXMtbGlu
dXiHBH8AAAEwDQYJKoZIhvcNAQELBQADggIBAGf6BpLwwODzDpx9H79D3Jl5FMDR
dvdxp4OVl5eAXshYF7xV4dE2mHRkoIh7O9hVNlYgA+gtM1NGQbMhNEVWWTrDTLm0
FCHtykX/CFJX1uGT0Sxgkn+aX0XWjMV9lPaC9ykU/cJj8WsStWwX1TVs37r+1+VI
1OZHOdsxnAq2PC7CmegXzylQJf3oeYlpOiYAsqeZQ0IB0y4eEGGTfLJud/lGiNzU
jjBphu6yCoGGZJM2AM8UESMEVjmJ7W/WpGQ06gLkF0TAPut2HX2VJY4nbQZv5zsy
1oAQ62OgcAQuISEXqi2hoTiFM0/bSQV8mZFXPyMvS9lz1Snh82OmxlI0lrOXid59
n83e845mTXiyroFTFZh8wQPGufpR6UZcSWyMbALl913wAXXk0Q22gkfBp+rhEBhs
t72s2drD+RjqOmIfAX+CN7SYY8QEs7oq2tdOAlfCZLomeaUdXyIIZnyY6qEomi21
xDNexrTt7hCcm7hTJ0TeNhXsYML2wG2uo55HretEkTSDKQTD1cZ/51PAYPqx6rDT
4W3ibwRlH3OEJTjvP0vhCPO9qeR38b1XUSnVKHKKsGHQCDRdCTQRRtcwLA3dQdz5
xmZ7CaYmr+VZAxMYM2VU8POqGrzu3fA5/sGDP0WczgBZL9cG7xwTJPtw0xgSF4+1
+Jql30KOW4m13LE1
-----END CERTIFICATE REQUEST-----
