Certificate Request:
    Data:
        Version: 1 (0x0)
        Subject: C = FR, O = NodeOPCUA, CN = NodeOPCUA
        Subject Public Key Info:
            Public Key Algorithm: rsaEncryption
                Public-Key: (2048 bit)
                Modulus:
                    00:b3:7c:3e:8b:d7:14:8b:1d:fb:81:22:b8:42:3f:
                    e0:3e:b9:cb:50:a2:8d:f2:bd:fa:e3:50:c5:21:45:
                    43:3c:b5:45:6a:a4:4b:19:28:23:fc:3d:b4:d2:2d:
                    04:cd:65:98:16:3a:5c:42:2f:04:4d:93:04:6b:06:
                    48:ca:9e:56:2f:70:e1:8d:c2:f1:a3:af:e9:0d:71:
                    7d:e7:00:75:3e:80:e5:72:26:75:a4:bf:40:f6:5d:
                    b5:90:d7:e1:41:50:e7:b7:71:fe:41:cf:5e:d6:be:
                    bd:c1:0f:da:ae:2a:f1:29:6c:98:1b:f7:a7:d6:5b:
                    0b:de:9a:8b:35:a6:1d:40:9c:cd:66:ea:5f:49:2b:
                    08:79:05:91:96:76:36:04:3a:f1:fe:e2:77:65:71:
                    18:61:2d:6f:72:72:09:38:c6:cf:c7:27:ed:05:35:
                    17:07:d8:78:e4:c7:0c:84:40:81:ec:ac:f2:7c:bc:
                    52:6c:63:9f:92:58:0a:5a:f3:2d:e3:b1:1f:e4:eb:
                    9c:fb:ec:d7:9a:c6:29:79:74:e4:bf:e3:1d:ea:cb:
                    90:a7:a6:61:0e:74:da:48:22:19:fc:2d:8b:88:21:
                    e0:7e:f0:bf:39:d6:a8:50:78:ec:77:14:d7:de:de:
                    98:0d:dc:8d:3b:37:5e:bb:36:7c:32:28:7f:3d:03:
                    78:eb
                Exponent: 65537 (0x10001)
        Attributes:
            Requested Extensions:
                X509v3 Basic Constraints: 
                    CA:FALSE
                X509v3 Key Usage: critical
                    Certificate Sign, CRL Sign
                X509v3 Subject Alternative Name: 
                    URI:urn:ramses-linux:NodeOPCUA-Client, DNS:ramses-linux, IP Address:127.0.0.1
    Signature Algorithm: sha256WithRSAEncryption
    Signature Value:
        89:10:c5:d7:4e:96:60:9e:6b:50:bd:e4:4e:db:9e:95:f5:a0:
        db:7a:e0:82:5f:80:d8:b8:e8:79:3b:d3:28:72:5f:73:c2:62:
        64:08:ca:7c:97:11:02:ea:42:cd:9b:50:45:a3:51:00:f1:60:
        0c:d1:b5:18:6c:e3:4c:f5:53:7c:23:20:43:39:9a:ea:7a:e9:
        e9:3b:95:59:b7:26:de:89:cf:f3:de:07:ee:ed:08:38:c1:c7:
        9d:89:1d:97:ef:ff:d1:95:13:1d:b1:f0:1a:1e:91:09:1e:20:
        10:6b:e5:0d:47:c8:b0:16:5c:0e:a6:6f:b3:43:38:6e:9a:26:
        45:bf:9e:33:70:c6:31:07:76:f8:d5:ba:d7:bd:de:60:65:63:
        2e:63:18:af:99:f2:76:6d:c2:24:93:ea:66:11:22:41:c0:fa:
        d2:75:c5:93:f7:2f:22:d1:84:22:f9:0e:2a:3c:bd:b3:c0:44:
        f3:f4:34:86:8d:1f:5e:51:4c:17:15:24:ed:a1:5f:03:3f:5a:
        5a:63:77:32:70:0c:bd:46:1f:ee:1f:0d:df:ca:c6:de:da:17:
        61:f7:b0:97:72:c4:3d:5f:c1:7e:b5:fb:61:35:92:9d:e7:8c:
        d1:44:6d:f4:6f:5b:df:39:45:ac:0e:a0:7a:6e:3e:b0:d5:66:
        ae:06:cb:fe
-----BEGIN CERTIFICATE REQUEST-----
MIIC6DCCAdACAQAwNTELMAkGA1UEBhMCRlIxEjAQBgNVBAoMCU5vZGVPUENVQTES
MBAGA1UEAwwJTm9kZU9QQ1VBMIIBIjANBgkqhkiG9w0BAQEFAAOCAQ8AMIIBCgKC
AQEAs3w+i9cUix37gSK4Qj/gPrnLUKKN8r3641DFIUVDPLVFaqRLGSgj/D200i0E
zWWYFjpcQi8ETZMEawZIyp5WL3DhjcLxo6/pDXF95wB1PoDlciZ1pL9A9l21kNfh
QVDnt3H+Qc9e1r69wQ/arirxKWyYG/en1lsL3pqLNaYdQJzNZupfSSsIeQWRlnY2
BDrx/uJ3ZXEYYS1vcnIJOMbPxyftBTUXB9h45McMhECB7KzyfLxSbGOfklgKWvMt
47Ef5Ouc++zXmsYpeXTkv+Md6suQp6ZhDnTaSCIZ/C2LiCHgfvC/OdaoUHjsdxTX
3t6YDdyNOzdeuzZ8Mih/PQN46wIDAQABoG4wbAYJKoZIhvcNAQkOMV8wXTAJBgNV
HRMEAjAAMA4GA1UdDwEB/wQEAwIBBjBABgNVHREEOTA3hiF1cm46cmFtc2VzLWxp
bnV4Ok5vZGVPUENVQS1DbGllbnSCDHJhbXNlcy1saW51eIcEfwAAATANBgkqhkiG
9w0BAQsFAAOCAQEAiRDF106WYJ5rUL3kTtuelfWg23rggl+A2LjoeTvTKHJfc8Ji
ZAjKfJcRAupCzZtQRaNRAPFgDNG1GGzjTPVTfCMgQzma6nrp6TuVWbcm3onP894H
7u0IOMHHnYkdl+//0ZUTHbHwGh6RCR4gEGvlDUfIsBZcDqZvs0M4bpomRb+eM3DG
MQd2+NW6173eYGVjLmMYr5nydm3CJJPqZhEiQcD60nXFk/cvItGEIvkOKjy9s8BE
8/Q0ho0fXlFMFxUk7aFfAz9aWmN3MnAMvUYf7h8N38rG3toXYfewl3LEPV/BfrX7
YTWSneeM0URt9G9b3zlFrA6gem4+sNVmrgbL/g==
-----END CERTIFICATE REQUEST-----
