Certificate Request:
    Data:
        Version: 1 (0x0)
        Subject: C = FR, O = NodeOPCUA, CN = NodeOPCUA
        Subject Public Key Info:
            Public Key Algorithm: rsaEncryption
                Public-Key: (3072 bit)
                Modulus:
                    00:9c:e0:bd:fb:b9:cd:75:75:3f:2e:78:a1:1e:66:
                    e7:87:6a:02:c4:4f:0c:4c:fe:6a:57:6a:a1:4d:12:
                    2c:c2:6f:08:b6:11:1c:2b:8e:f0:9f:13:7b:55:d3:
                    99:8b:ad:ec:67:e3:6d:7c:d8:77:0d:26:b4:1b:35:
                    84:98:e6:37:b6:08:76:1c:50:a0:7f:1f:77:04:00:
                    4a:40:8d:90:3d:03:6e:1f:5d:f6:5d:34:d9:36:0b:
                    a9:5b:e2:b2:0e:bd:55:9e:54:d7:26:ba:ad:7c:74:
                    48:28:73:8b:50:ea:f8:20:bc:72:48:1b:73:28:e6:
                    c8:1a:94:ae:ba:b0:ad:f4:ad:8e:6d:7f:0f:53:0c:
                    60:3e:cd:bb:05:34:2c:d2:38:f4:ac:6b:d0:fe:9b:
                    61:28:33:84:cd:06:96:22:df:93:e0:e1:5b:b2:86:
                    65:1d:60:27:85:61:aa:b9:6a:10:6c:bb:d0:ba:cd:
                    2d:04:ed:97:76:2b:5b:9c:6e:94:2e:e3:ff:19:db:
                    7d:bd:b3:37:4d:d5:01:94:5e:bf:5c:43:05:a9:6c:
                    90:68:9d:49:30:32:34:b9:cb:ce:f3:3a:98:17:ac:
                    ce:b8:85:9f:f4:a7:cf:ef:2a:0b:f3:04:b2:fa:8f:
                    97:20:02:ac:f3:bf:7f:cc:d7:4d:67:95:54:86:96:
                    77:99:fd:4b:a9:09:c4:c0:52:cc:7c:aa:4d:3e:70:
                    fe:0e:27:0c:ae:06:2d:54:a7:66:1a:16:75:b3:9c:
                    02:1e:ba:6c:7d:ff:67:2f:b0:f1:18:27:9c:1f:6e:
                    4d:94:56:c1:b6:b9:46:28:6b:9b:c9:ed:4d:e5:2f:
                    3a:83:e5:d2:93:14:2e:74:ed:52:00:24:c2:5f:09:
                    81:87:ac:62:f5:27:79:c5:3e:9b:54:74:15:27:2a:
                    6f:d7:c9:2c:98:71:e2:2f:4d:39:f6:f6:55:35:1a:
                    9f:17:20:67:d4:dd:a9:67:e0:f2:fe:76:ed:14:45:
                    69:46:99:fd:ce:d4:26:2b:01:33
                Exponent: 65537 (0x10001)
        Attributes:
            Requested Extensions:
                X509v3 Basic Constraints: 
                    CA:FALSE
                X509v3 Key Usage: critical
                    Certificate Sign, CRL Sign
                X509v3 Subject Alternative Name: 
                    URI:urn:ramses-linux:NodeOPCUA-Client, DNS:ramses-linux, IP Address:127.0.0.1
    Signature Algorithm: sha256WithRSAEncryption
    Signature Value:
        2b:53:4a:45:b1:31:8a:f3:d8:42:bd:43:de:74:04:41:0c:c3:
        ff:11:8f:0f:a7:b8:bd:ce:60:53:27:df:eb:0f:54:29:99:1f:
        c7:fb:e2:87:b4:cd:41:d3:26:b2:e4:0d:46:f7:36:0b:99:ee:
        0b:09:a4:c7:ec:1b:04:0b:51:b9:36:65:ba:39:9e:a5:d9:ff:
        1b:0b:ed:62:12:a9:3f:a3:e5:37:c8:24:59:ef:c4:06:a6:2b:
        8b:67:2f:02:d4:8b:a5:2c:26:b5:60:3f:0b:52:75:e1:cd:ff:
        d0:15:ac:73:23:9e:f0:aa:ad:04:50:0d:6e:ac:c0:c9:14:68:
        a4:9c:2a:c7:70:4a:bb:49:9a:89:28:20:22:db:b7:c7:6c:cb:
        87:cc:db:6f:d1:d0:02:cf:ec:f3:35:a7:e6:f2:2a:60:c5:2b:
        f9:df:4e:c9:75:f4:2e:70:64:af:89:a6:cc:56:da:8d:3e:14:
        7c:da:6d:ac:85:16:28:5a:19:86:d4:be:fc:eb:c7:45:7c:37:
        b5:56:f1:c7:50:e0:55:1f:16:d7:a3:de:34:be:1e:01:f4:c2:
        98:d2:67:57:d8:93:ea:d4:3c:64:09:ac:1b:a2:b4:1f:68:e2:
        be:75:5c:58:42:d8:49:33:5a:65:41:a0:30:35:de:47:e7:1e:
        c0:51:95:6c:74:93:66:33:48:7e:37:e3:09:61:03:65:9c:7b:
        a8:f2:0e:f7:67:b1:16:61:59:a1:bd:1b:67:7a:d3:10:96:86:
        ff:76:9c:36:3f:0c:b5:bb:81:2b:2d:ff:4e:3f:19:71:5a:31:
        e6:4e:fd:06:e7:42:56:ee:b9:24:aa:b1:ae:af:18:4f:47:ad:
        bf:ad:79:1d:ba:21:5d:18:8b:fe:26:7d:86:b6:8d:cf:dc:79:
        da:62:f1:03:bb:85:a6:6a:1a:df:c2:e3:ed:3b:ab:d2:4f:b3:
        e5:a7:d2:e6:4f:25:5c:a0:da:88:aa:b4:7d:ef:bc:bf:2f:59:
        04:f7:1f:6c:c1:61
-----BEGIN CERTIFICATE REQUEST-----
MIID6DCCAlACAQAwNTELMAkGA1UEBhMCRlIxEjAQBgNVBAoMCU5vZGVPUENVQTES
MBAGA1UEAwwJTm9kZU9QQ1VBMIIBojANBgkqhkiG9w0BAQEFAAOCAY8AMIIBigKC
AYEAnOC9+7nNdXU/LnihHmbnh2oCxE8MTP5qV2qhTRIswm8IthEcK47wnxN7VdOZ
i63sZ+NtfNh3DSa0GzWEmOY3tgh2HFCgfx93BABKQI2QPQNuH132XTTZNgupW+Ky
Dr1VnlTXJrqtfHRIKHOLUOr4ILxySBtzKObIGpSuurCt9K2ObX8PUwxgPs27BTQs
0jj0rGvQ/pthKDOEzQaWIt+T4OFbsoZlHWAnhWGquWoQbLvQus0tBO2XditbnG6U
LuP/Gdt9vbM3TdUBlF6/XEMFqWyQaJ1JMDI0ucvO8zqYF6zOuIWf9KfP7yoL8wSy
+o+XIAKs879/zNdNZ5VUhpZ3mf1LqQnEwFLMfKpNPnD+DicMrgYtVKdmGhZ1s5wC
Hrpsff9nL7DxGCecH25NlFbBtrlGKGubye1N5S86g+XSkxQudO1SACTCXwmBh6xi
9Sd5xT6bVHQVJypv18ksmHHiL0059vZVNRqfFyBn1N2pZ+Dy/nbtFEVpRpn9ztQm
KwEzAgMBAAGgbjBsBgkqhkiG9w0BCQ4xXzBdMAkGA1UdEwQCMAAwDgYDVR0PAQH/
BAQDAgEGMEAGA1UdEQQ5MDeGIXVybjpyYW1zZXMtbGludXg6Tm9kZU9QQ1VBLUNs
aWVudIIMcmFtc2VzLWxpbnV4hwR/AAABMA0GCSqGSIb3DQEBCwUAA4IBgQArU0pF
sTGK89hCvUPedARBDMP/EY8Pp7i9zmBTJ9/rD1QpmR/H++KHtM1B0yay5A1G9zYL
me4LCaTH7BsEC1G5NmW6OZ6l2f8bC+1iEqk/o+U3yCRZ78QGpiuLZy8C1IulLCa1
YD8LUnXhzf/QFaxzI57wqq0EUA1urMDJFGiknCrHcEq7SZqJKCAi27fHbMuHzNtv
0dACz+zzNafm8ipgxSv5307JdfQucGSviabMVtqNPhR82m2shRYoWhmG1L7868dF
fDe1VvHHUOBVHxbXo940vh4B9MKY0mdX2JPq1DxkCawborQfaOK+dVxYQthJM1pl
QaAwNd5H5x7AUZVsdJNmM0h+N+MJYQNlnHuo8g73Z7EWYVmhvRtnetMQlob/dpw2
Pwy1u4ErLf9OPxlxWjHmTv0G50JW7rkkqrGurxhPR62/rXkduiFdGIv+Jn2Gto3P
3HnaYvEDu4WmahrfwuPtO6vST7Plp9LmTyVcoNqIqrR977y/L1kE9x9swWE=
-----END CERTIFICATE REQUEST-----
