Certificate Request:
    Data:
        Version: 1 (0x0)
        Subject: C = FR, O = NodeOPCUA, CN = NodeOPCUA
        Subject Public Key Info:
            Public Key Algorithm: rsaEncryption
                Public-Key: (1024 bit)
                Modulus:
                    00:ba:96:4d:11:a8:03:26:bd:d4:1e:d6:37:a3:f2:
                    46:9f:84:a1:a7:0f:7f:68:26:cc:15:89:37:45:79:
                    a3:e0:94:7c:18:32:65:86:b1:a5:f3:46:f9:0f:9d:
                    27:86:e2:04:87:7b:5a:01:b5:9c:87:7c:b0:02:f1:
                    06:8b:16:49:13:57:ed:f9:e2:59:fb:0a:fd:db:6e:
                    90:be:7c:7e:8c:a5:57:20:d7:84:49:5c:a6:d3:b2:
                    9f:94:6d:c1:39:a7:b7:0b:48:8b:b2:a4:d6:16:40:
                    05:f8:c5:9f:cd:91:14:c9:d8:cc:c2:b6:91:f1:08:
                    5f:ff:55:2f:99:bf:de:1c:e1
                Exponent: 65537 (0x10001)
        Attributes:
            Requested Extensions:
                X509v3 Basic Constraints: 
                    CA:FALSE
                X509v3 Key Usage: critical
                    Certificate Sign, CRL Sign
                X509v3 Subject Alternative Name: 
                    URI:urn:ramses-linux:NodeOPCUA-Client, DNS:ramses-linux, IP Address:127.0.0.1
    Signature Algorithm: sha256WithRSAEncryption
    Signature Value:
        6b:7b:71:fe:2d:15:46:be:75:71:f2:60:43:ff:52:17:70:9c:
        59:0b:cc:30:2d:71:cc:4c:ac:d1:88:f4:fb:6a:e2:15:0f:30:
        bc:f6:bd:bd:1c:d7:ca:d8:ee:ab:f2:27:30:da:54:a8:5a:b7:
        cc:7a:a1:65:47:b4:9e:a0:51:91:9a:89:2e:64:6a:60:f1:6c:
        d1:76:07:82:d2:a8:43:7c:50:2d:58:df:ff:3a:82:70:f6:6e:
        99:10:74:4e:34:0d:14:13:c6:54:8e:56:0b:a5:3a:7b:18:20:
        53:4b:33:be:fa:81:ee:7a:76:05:de:af:1e:7c:a3:7c:f2:be:
        91:c1
-----BEGIN CERTIFICATE REQUEST-----
MIIB4zCCAUwCAQAwNTELMAkGA1UEBhMCRlIxEjAQBgNVBAoMCU5vZGVPUENVQTES
MBAGA1UEAwwJTm9kZU9QQ1VBMIGfMA0GCSqGSIb3DQEBAQUAA4GNADCBiQKBgQC6
lk0RqAMmvdQe1jej8kafhKGnD39oJswViTdFeaPglHwYMmWGsaXzRvkPnSeG4gSH
e1oBtZyHfLAC8QaLFkkTV+354ln7Cv3bbpC+fH6MpVcg14RJXKbTsp+UbcE5p7cL
SIuypNYWQAX4xZ/NkRTJ2MzCtpHxCF//VS+Zv94c4QIDAQABoG4wbAYJKoZIhvcN
AQkOMV8wXTAJBgNVHRMEAjAAMA4GA1UdDwEB/wQEAwIBBjBABgNVHREEOTA3hiF1
cm46cmFtc2VzLWxpbnV4Ok5vZGVPUENVQS1DbGllbnSCDHJhbXNlcy1saW51eIcE
fwAAATANBgkqhkiG9w0BAQsFAAOBgQBre3H+LRVGvnVx8mBD/1IXcJxZC8wwLXHM
TKzRiPT7auIVDzC89r29HNfK2O6r8icw2lSoWrfMeqFlR7SeoFGRmokuZGpg8WzR
dgeC0qhDfFAtWN//OoJw9m6ZEHRONA0UE8ZUjlYLpTp7GCBTSzO++oHuenYF3q8e
fKN88r6RwQ==
-----END CERTIFICATE REQUEST-----
