Certificate Request:
    Data:
        Version: 1 (0x0)
        Subject: C = FR, O = NodeOPCUA, CN = NodeOPCUA
        Subject Public Key Info:
            Public Key Algorithm: rsaEncryption
                Public-Key: (3072 bit)
                Modulus:
                    00:db:8c:a3:68:54:73:ed:ee:f9:2d:b5:0a:49:dd:
                    77:b6:55:ea:94:20:e0:b0:3f:be:dc:30:b9:6f:56:
                    02:fb:a6:a8:f2:ef:58:dc:20:cc:c2:f5:cf:7a:e2:
                    6c:d2:a8:0f:6e:7e:6f:65:23:8c:b6:07:4d:12:a9:
                    60:47:17:9d:d0:de:56:0f:c0:e7:87:c3:cc:e8:73:
                    c1:5d:77:90:de:19:97:f9:4c:69:5d:2b:b8:62:eb:
                    b0:72:b2:d6:3c:86:0b:55:08:2b:ce:83:66:fc:dd:
                    ad:4f:12:e9:a8:8b:20:cf:1c:be:5e:e5:e0:db:0b:
                    ac:c6:a7:6d:21:f9:f2:e2:a7:f3:a6:5e:d7:fe:0b:
                    ac:f2:ec:d1:fd:76:fd:11:cc:c6:05:f9:f7:74:29:
                    6a:8f:63:7d:b9:21:23:05:8b:0b:9b:42:a1:9b:df:
                    a7:f0:c7:0d:40:dd:b2:d6:5b:a8:86:4d:b1:b8:8b:
                    73:4a:f8:ae:65:bc:0e:33:6d:42:c7:f7:a8:f0:1d:
                    f8:9f:73:3c:d1:77:b9:84:06:34:ee:e1:0e:cc:58:
                    8d:d9:41:a1:6b:cd:58:0f:6e:4d:ff:8d:f5:68:84:
                    92:1f:eb:52:b8:3d:88:4a:c8:99:3e:8a:88:a1:03:
                    79:c6:ab:83:96:c0:ca:3c:41:52:0a:cd:26:6d:bc:
                    82:57:a9:70:0a:f7:cc:e0:7d:c6:8f:c5:eb:7c:85:
                    51:91:86:ba:60:0e:d4:25:56:2f:fe:ef:35:61:76:
                    70:70:4d:e7:f6:e1:ad:2e:66:5b:35:21:6b:81:16:
                    ba:51:21:36:79:98:3a:78:29:fc:9a:73:8f:6d:0b:
                    62:00:80:63:06:56:4e:0b:43:af:4e:fe:37:d5:5d:
                    b5:cd:52:0f:0c:40:e3:28:ca:6d:50:03:aa:c6:13:
                    06:53:62:32:23:f8:26:b0:cd:6c:ab:21:35:2b:4c:
                    65:99:f4:5c:61:0c:50:02:bf:e7:26:66:a5:84:c6:
                    39:f8:6b:cd:e7:e6:37:ed:f6:f9
                Exponent: 65537 (0x10001)
        Attributes:
            Requested Extensions:
                X509v3 Basic Constraints: 
                    CA:FALSE
                X509v3 Key Usage: critical
                    Certificate Sign, CRL Sign
                X509v3 Subject Alternative Name: 
                    URI:urn:ramses-linux:NodeOPCUA-DiscoveryServer, DNS:ramses-linux, IP Address:127.0.0.1
    Signature Algorithm: sha256WithRSAEncryption
    Signature Value:
        78:4f:3a:84:b9:ca:08:0f:52:d4:e3:8d:a3:bf:42:c7:10:3e:
        0d:70:ca:21:95:81:b1:ca:34:58:59:83:be:1a:59:11:66:50:
        dd:3c:5f:88:96:bd:48:87:29:d7:55:bb:3f:a3:eb:08:77:09:
        04:04:09:6b:75:bc:d7:d7:93:c5:3d:65:8e:5a:2d:e6:1a:0f:
        fa:bf:2c:00:d1:06:77:5a:70:05:e8:fd:95:c9:3d:09:3d:5b:
        38:aa:24:8f:5c:0a:2f:13:7c:46:83:2d:26:8d:cb:fb:49:7e:
        90:b3:ff:53:bf:7a:ba:29:39:38:70:58:3a:86:cd:83:ec:52:
        5b:34:9c:aa:4a:c3:69:19:9e:88:fd:79:5e:6b:63:6b:51:51:
        28:fd:21:8f:bc:41:d8:f7:37:27:46:83:c4:24:22:1f:0d:29:
        83:7a:5e:c3:19:c5:50:49:ef:1c:ca:da:48:6e:82:cc:fd:c3:
        eb:d0:a5:0e:cf:fa:6d:2c:f2:73:10:21:79:66:fb:56:78:45:
        55:82:1b:bf:9e:a3:4c:07:2a:e7:cf:5b:f9:00:d1:0c:74:7f:
        94:0e:50:05:4a:90:2a:20:df:ed:84:d3:3e:a1:db:59:52:bc:
        dc:d6:7a:8f:7c:a4:9b:53:44:a7:1b:13:2a:bb:19:da:13:da:
        fb:7d:17:ab:c2:c5:e1:46:88:43:98:19:40:55:6d:bc:33:fd:
        80:5f:7f:bb:7d:38:d1:81:51:65:f7:be:97:6e:6f:7f:8c:63:
        0d:b7:bd:89:f9:eb:fa:1a:94:ff:3e:93:f5:f9:0d:81:c4:fc:
        5d:74:ce:5d:60:03:24:87:7c:1e:47:e1:de:c7:23:01:59:73:
        59:75:4c:2d:aa:72:12:cc:5e:d9:02:6e:9c:f5:35:aa:53:26:
        e8:e1:fb:b3:e1:52:bf:fc:36:db:a7:d5:fb:7e:2b:33:9d:8e:
        0f:45:80:b9:87:fe:d7:0f:5e:5d:a3:ed:55:a4:95:27:88:7a:
        f2:22:4f:eb:03:55
-----BEGIN CERTIFICATE REQUEST-----
MIID8TCCAlkCAQAwNTELMAkGA1UEBhMCRlIxEjAQBgNVBAoMCU5vZGVPUENVQTES
MBAGA1UEAwwJTm9kZU9QQ1VBMIIBojANBgkqhkiG9w0BAQEFAAOCAY8AMIIBigKC
AYEA24yjaFRz7e75LbUKSd13tlXqlCDgsD++3DC5b1YC+6ao8u9Y3CDMwvXPeuJs
0qgPbn5vZSOMtgdNEqlgRxed0N5WD8Dnh8PM6HPBXXeQ3hmX+UxpXSu4YuuwcrLW
PIYLVQgrzoNm/N2tTxLpqIsgzxy+XuXg2wusxqdtIfny4qfzpl7X/gus8uzR/Xb9
EczGBfn3dClqj2N9uSEjBYsLm0Khm9+n8McNQN2y1luohk2xuItzSviuZbwOM21C
x/eo8B34n3M80Xe5hAY07uEOzFiN2UGha81YD25N/431aISSH+tSuD2ISsiZPoqI
oQN5xquDlsDKPEFSCs0mbbyCV6lwCvfM4H3Gj8XrfIVRkYa6YA7UJVYv/u81YXZw
cE3n9uGtLmZbNSFrgRa6USE2eZg6eCn8mnOPbQtiAIBjBlZOC0OvTv431V21zVIP
DEDjKMptUAOqxhMGU2IyI/gmsM1sqyE1K0xlmfRcYQxQAr/nJmalhMY5+GvN5+Y3
7fb5AgMBAAGgdzB1BgkqhkiG9w0BCQ4xaDBmMAkGA1UdEwQCMAAwDgYDVR0PAQH/
BAQDAgEGMEkGA1UdEQRCMECGKnVybjpyYW1zZXMtbGludXg6Tm9kZU9QQ1VBLURp
c2NvdmVyeVNlcnZlcoIMcmFtc2VzLWxpbnV4hwR/AAABMA0GCSqGSIb3DQEBCwUA
A4IBgQB4TzqEucoID1LU442jv0LHED4NcMohlYGxyjRYWYO+GlkRZlDdPF+Ilr1I
hynXVbs/o+sIdwkEBAlrdbzX15PFPWWOWi3mGg/6vywA0QZ3WnAF6P2VyT0JPVs4
qiSPXAovE3xGgy0mjcv7SX6Qs/9Tv3q6KTk4cFg6hs2D7FJbNJyqSsNpGZ6I/Xle
a2NrUVEo/SGPvEHY9zcnRoPEJCIfDSmDel7DGcVQSe8cytpIboLM/cPr0KUOz/pt
LPJzECF5ZvtWeEVVghu/nqNMByrnz1v5ANEMdH+UDlAFSpAqIN/thNM+odtZUrzc
1nqPfKSbU0SnGxMquxnaE9r7fRerwsXhRohDmBlAVW28M/2AX3+7fTjRgVFl976X
bm9/jGMNt72J+ev6GpT/PpP1+Q2BxPxddM5dYAMkh3weR+HexyMBWXNZdUwtqnIS
zF7ZAm6c9TWqUybo4fuz4VK//Dbbp9X7fisznY4PRYC5h/7XD15do+1VpJUniHry
Ik/rA1U=
-----END CERTIFICATE REQUEST-----
