Certificate Request:
    Data:
        Version: 1 (0x0)
        Subject: C = FR, O = NodeOPCUA, CN = NodeOPCUA
        Subject Public Key Info:
            Public Key Algorithm: rsaEncryption
                Public-Key: (1024 bit)
                Modulus:
                    00:dd:54:bc:7b:a2:40:0c:ed:1d:cc:bc:69:43:8f:
                    a2:85:ab:32:92:f6:32:b2:29:44:bf:33:7d:77:df:
                    b2:d0:e6:d2:a8:13:e6:e6:3f:07:e2:cf:f4:60:26:
                    0d:c3:b6:e9:9a:5e:02:85:11:10:ed:76:5a:66:37:
                    1a:2d:96:05:96:2a:d9:72:34:8f:e3:3d:12:74:57:
                    82:9a:ce:b6:d6:c2:7d:68:47:a8:96:fb:dc:80:92:
                    63:ae:6f:ee:ee:d6:a5:88:9c:5a:da:44:b7:f1:89:
                    82:8e:85:14:32:ad:07:18:e4:4a:b0:06:e3:28:f9:
                    9d:b7:db:eb:e3:32:1d:09:81
                Exponent: 65537 (0x10001)
        Attributes:
            Requested Extensions:
                X509v3 Basic Constraints: 
                    CA:FALSE
                X509v3 Key Usage: critical
                    Certificate Sign, CRL Sign
                X509v3 Subject Alternative Name: 
                    URI:urn:ramses-linux:NodeOPCUA-DiscoveryServer, DNS:ramses-linux, IP Address:127.0.0.1
    Signature Algorithm: sha256WithRSAEncryption
    Signature Value:
        64:98:41:14:07:a8:5a:19:01:9b:1f:d7:04:0d:1e:3e:64:57:
        c7:ca:0d:f1:a1:e1:45:c3:18:b6:90:5d:7b:e9:84:b9:1d:26:
        75:33:7b:6d:0c:8f:3c:fa:52:75:a5:06:d0:59:ba:f7:04:7f:
        34:e4:0a:3d:99:ab:80:4c:84:ba:47:d1:b0:7c:26:57:b4:0c:
        7e:d1:d1:7b:45:6d:fd:5f:ee:05:3c:f5:ae:9e:56:5b:77:b0:
        b2:c0:ae:25:47:7e:37:08:48:1c:0f:a5:17:f6:52:6f:2a:12:
        18:d8:5f:66:11:cb:9e:1b:83:59:6d:93:70:dc:78:db:46:23:
        4f:9a
-----BEGIN CERTIFICATE REQUEST-----
MIIB7DCCAVUCAQAwNTELMAkGA1UEBhMCRlIxEjAQBgNVBAoMCU5vZGVPUENVQTES
MBAGA1UEAwwJTm9kZU9QQ1VBMIGfMA0GCSqGSIb3DQEBAQUAA4GNADCBiQKBgQDd
VLx7okAM7R3MvGlDj6KFqzKS9jKyKUS/M31337LQ5tKoE+bmPwfiz/RgJg3Dtuma
XgKFERDtdlpmNxotlgWWKtlyNI/jPRJ0V4KazrbWwn1oR6iW+9yAkmOub+7u1qWI
nFraRLfxiYKOhRQyrQcY5EqwBuMo+Z232+vjMh0JgQIDAQABoHcwdQYJKoZIhvcN
AQkOMWgwZjAJBgNVHRMEAjAAMA4GA1UdDwEB/wQEAwIBBjBJBgNVHREEQjBAhip1
cm46cmFtc2VzLWxpbnV4Ok5vZGVPUENVQS1EaXNjb3ZlcnlTZXJ2ZXKCDHJhbXNl
cy1saW51eIcEfwAAATANBgkqhkiG9w0BAQsFAAOBgQBkmEEUB6haGQGbH9cEDR4+
ZFfHyg3xoeFFwxi2kF176YS5HSZ1M3ttDI88+lJ1pQbQWbr3BH805Ao9mauATIS6
R9GwfCZXtAx+0dF7RW39X+4FPPWunlZbd7CywK4lR343CEgcD6UX9lJvKhIY2F9m
EcueG4NZbZNw3HjbRiNPmg==
-----END CERTIFICATE REQUEST-----
