Certificate Request:
    Data:
        Version: 1 (0x0)
        Subject: C = FR, O = NodeOPCUA, CN = NodeOPCUA
        Subject Public Key Info:
            Public Key Algorithm: rsaEncryption
                Public-Key: (4096 bit)
                Modulus:
                    00:d9:17:e3:28:f0:b6:93:51:3d:94:84:41:8a:13:
                    be:a8:4a:b7:7b:03:79:2c:91:44:6f:76:01:7f:f8:
                    f6:52:be:44:76:f4:c4:23:0b:51:cc:41:7b:bb:d9:
                    e4:98:de:e2:ce:48:96:95:5e:65:6d:7e:5c:d1:58:
                    90:cd:87:01:34:7a:c0:b5:7e:06:d7:87:b7:a7:14:
                    13:d7:1d:9a:a7:31:dd:36:56:56:4a:2f:3a:87:a5:
                    76:75:b6:19:0f:20:88:4f:74:e6:f1:19:f5:88:81:
                    56:17:cb:6c:6c:c7:59:1b:f1:c9:73:5c:e6:0a:51:
                    54:50:c5:2c:6c:5f:ac:74:e1:d7:ae:e4:74:27:2d:
                    46:e0:dd:4e:4d:94:f8:38:5f:82:0d:cb:89:92:1d:
                    36:d0:17:64:99:23:3f:14:49:0f:e3:e4:6c:0a:fc:
                    01:b7:9e:85:52:95:9d:75:0d:19:5a:cd:3f:8d:4d:
                    e6:f5:36:0e:cd:3d:98:2f:be:e7:fb:11:98:9c:ba:
                    12:a2:01:5e:a7:72:36:47:60:52:1a:c0:fb:b8:ac:
                    97:47:bb:91:98:ed:e2:51:8d:28:fe:a0:48:19:20:
                    fe:90:88:76:ac:b8:88:67:1e:a8:8e:23:e2:3d:57:
                    34:08:d2:6d:be:b2:30:cb:02:26:fd:3c:0b:45:4d:
                    b7:e3:4f:3e:dd:8b:cf:09:fa:54:d8:b1:c3:60:02:
                    aa:70:de:28:84:ae:f2:7d:c9:37:68:7c:bd:10:50:
                    3e:cf:b3:22:02:24:5e:64:c0:f7:39:2c:3a:36:05:
                    ee:b2:c2:27:ce:de:47:b5:37:ad:a5:4b:b5:07:a7:
                    00:80:6d:e0:cc:3f:1d:35:57:17:b4:a6:fa:e1:c2:
                    05:a5:c9:61:7d:9c:c0:c3:a3:cc:d3:34:f5:57:6d:
                    4f:a1:c7:cc:4b:48:e0:41:30:2a:4b:74:d6:9e:22:
                    4a:25:7a:52:fc:d6:04:f0:a2:80:51:79:d2:18:42:
                    53:b0:45:d2:f1:7a:09:11:1c:19:ea:a4:b9:25:db:
                    1f:da:4a:d0:8d:60:37:59:4b:e3:4c:1a:80:e7:4e:
                    06:f9:b5:c0:81:18:c4:43:20:d3:43:bd:76:ca:a9:
                    28:f0:1d:43:be:a5:de:61:7a:46:7b:ee:bb:4b:b5:
                    c4:4a:9d:85:66:26:f0:c5:d9:1c:57:c0:99:22:b5:
                    d5:96:0a:9f:ea:4c:39:51:87:3a:2d:48:0e:91:53:
                    67:23:9b:e2:48:6f:67:b8:46:42:28:8d:dd:1f:fd:
                    ad:cc:7e:7c:1b:e8:6c:44:44:da:b5:8b:74:c2:32:
                    98:c6:8e:a3:3f:0b:14:1d:db:2a:fb:25:20:46:f1:
                    2d:94:09
                Exponent: 65537 (0x10001)
        Attributes:
            Requested Extensions:
                X509v3 Basic Constraints: 
                    CA:FALSE
                X509v3 Key Usage: critical
                    Certificate Sign, CRL Sign
                X509v3 Subject Alternative Name: 
                    URI:urn:ramses-linux:NodeOPCUA-DiscoveryServer, DNS:ramses-linux, IP Address:127.0.0.1
    Signature Algorithm: sha256WithRSAEncryption
    Signature Value:
        70:69:42:39:70:a6:77:97:65:0b:5c:58:67:eb:1a:84:78:a0:
        4f:99:14:d3:49:d6:75:7b:37:4f:c6:0b:25:0e:07:cf:ed:b2:
        5e:00:56:08:04:2b:fc:18:61:a8:7d:1b:b5:79:51:d3:9e:ff:
        b7:4d:86:83:6d:61:46:90:34:9e:dd:c1:c6:e6:a1:f9:fc:d6:
        1a:a0:2e:ae:bd:ef:2f:42:ed:cb:49:54:5e:04:62:6a:25:1d:
        b9:be:5b:be:e6:c4:89:c6:73:5b:7e:73:01:54:64:20:fd:54:
        f1:61:2d:56:c0:02:a9:2b:26:66:c1:a6:d0:f9:e4:9c:a7:31:
        9c:ce:d3:0d:dc:fa:ea:c6:1f:69:ba:cb:97:ae:36:1c:60:2f:
        83:5c:53:32:0b:91:52:66:44:52:e0:47:c8:3d:ab:6c:12:df:
        99:76:3a:61:03:4f:c7:12:b1:75:f0:b2:44:c3:20:c2:55:15:
        9d:7f:30:c2:44:3e:84:92:1e:dc:57:03:55:dd:e0:ba:2c:c0:
        10:77:81:67:7b:9e:34:38:7e:99:c3:6a:50:21:43:53:2f:d7:
        e2:65:ff:7e:5c:64:15:80:08:52:c0:ca:02:a6:28:d5:e7:0e:
        7c:7e:2b:f0:34:4d:3d:14:8f:a5:c0:6d:4b:bb:6d:a2:11:3e:
        7e:3e:53:af:58:56:f1:3d:97:76:07:5b:8c:28:a2:e5:98:8e:
        62:03:1f:20:39:a6:79:fb:55:bd:1b:90:b7:7b:df:40:ad:79:
        bf:70:d9:c8:0f:e1:e0:a5:ed:ef:cd:1b:18:de:0a:29:91:34:
        75:6c:58:51:7a:0c:c5:cb:9f:28:23:f6:7d:de:8a:35:40:43:
        46:f5:a0:29:f9:08:21:c8:d8:f0:a9:26:06:ee:c3:89:ac:e2:
        0e:18:5f:f9:c1:6d:47:28:e3:b8:20:02:3a:66:f8:42:b3:aa:
        16:58:49:f7:ea:fd:94:48:7b:ac:7f:f8:65:09:59:af:95:96:
        fd:ce:47:e5:73:20:e3:f4:7d:49:75:42:75:3a:30:ad:a7:ec:
        fc:e9:3d:51:f2:91:44:ca:49:11:e0:c3:3c:05:b5:7b:28:b2:
        db:02:38:52:c3:9e:1b:76:bb:54:9c:e9:a7:b3:92:59:27:c2:
        83:9f:cc:8a:21:75:24:a1:c1:31:d1:7a:1d:45:2d:3c:f5:5c:
        f0:18:14:62:6a:ed:ce:17:f9:8d:e0:06:eb:8c:ae:e2:63:41:
        9b:34:7b:57:4f:f0:ce:3d:60:cc:81:ab:16:c2:71:55:c6:d6:
        a1:87:e9:f7:18:83:8a:f8:ba:f2:bf:de:f7:bb:98:87:73:90:
        2c:6b:22:24:87:20:04:96
-----BEGIN CERTIFICATE REQUEST-----
MIIE8TCCAtkCAQAwNTELMAkGA1UEBhMCRlIxEjAQBgNVBAoMCU5vZGVPUENVQTES
MBAGA1UEAwwJTm9kZU9QQ1VBMIICIjANBgkqhkiG9w0BAQEFAAOCAg8AMIICCgKC
AgEA2RfjKPC2k1E9lIRBihO+qEq3ewN5LJFEb3YBf/j2Ur5EdvTEIwtRzEF7u9nk
mN7izkiWlV5lbX5c0ViQzYcBNHrAtX4G14e3pxQT1x2apzHdNlZWSi86h6V2dbYZ
DyCIT3Tm8Rn1iIFWF8tsbMdZG/HJc1zmClFUUMUsbF+sdOHXruR0Jy1G4N1OTZT4
OF+CDcuJkh020BdkmSM/FEkP4+RsCvwBt56FUpWddQ0ZWs0/jU3m9TYOzT2YL77n
+xGYnLoSogFep3I2R2BSGsD7uKyXR7uRmO3iUY0o/qBIGSD+kIh2rLiIZx6ojiPi
PVc0CNJtvrIwywIm/TwLRU23408+3YvPCfpU2LHDYAKqcN4ohK7yfck3aHy9EFA+
z7MiAiReZMD3OSw6NgXussInzt5HtTetpUu1B6cAgG3gzD8dNVcXtKb64cIFpclh
fZzAw6PM0zT1V21PocfMS0jgQTAqS3TWniJKJXpS/NYE8KKAUXnSGEJTsEXS8XoJ
ERwZ6qS5Jdsf2krQjWA3WUvjTBqA504G+bXAgRjEQyDTQ712yqko8B1DvqXeYXpG
e+67S7XESp2FZibwxdkcV8CZIrXVlgqf6kw5UYc6LUgOkVNnI5viSG9nuEZCKI3d
H/2tzH58G+hsRETatYt0wjKYxo6jPwsUHdsq+yUgRvEtlAkCAwEAAaB3MHUGCSqG
SIb3DQEJDjFoMGYwCQYDVR0TBAIwADAOBgNVHQ8BAf8EBAMCAQYwSQYDVR0RBEIw
QIYqdXJuOnJhbXNlcy1saW51eDpOb2RlT1BDVUEtRGlzY292ZXJ5U2VydmVyggxy
YW1zZXMtbGludXiHBH8AAAEwDQYJKoZIhvcNAQELBQADggIBAHBpQjlwpneXZQtc
WGfrGoR4oE+ZFNNJ1nV7N0/GCyUOB8/tsl4AVggEK/wYYah9G7V5UdOe/7dNhoNt
YUaQNJ7dwcbmofn81hqgLq697y9C7ctJVF4EYmolHbm+W77mxInGc1t+cwFUZCD9
VPFhLVbAAqkrJmbBptD55JynMZzO0w3c+urGH2m6y5euNhxgL4NcUzILkVJmRFLg
R8g9q2wS35l2OmEDT8cSsXXwskTDIMJVFZ1/MMJEPoSSHtxXA1Xd4LoswBB3gWd7
njQ4fpnDalAhQ1Mv1+Jl/35cZBWACFLAygKmKNXnDnx+K/A0TT0Uj6XAbUu7baIR
Pn4+U69YVvE9l3YHW4woouWYjmIDHyA5pnn7Vb0bkLd730Cteb9w2cgP4eCl7e/N
GxjeCimRNHVsWFF6DMXLnygj9n3eijVAQ0b1oCn5CCHI2PCpJgbuw4ms4g4YX/nB
bUco47ggAjpm+EKzqhZYSffq/ZRIe6x/+GUJWa+Vlv3OR+VzIOP0fUl1QnU6MK2n
7PzpPVHykUTKSRHgwzwFtXsostsCOFLDnht2u1Sc6aezklknwoOfzIohdSShwTHR
eh1FLTz1XPAYFGJq7c4X+Y3gBuuMruJjQZs0e1dP8M49YMyBqxbCcVXG1qGH6fcY
g4r4uvK/3ve7mIdzkCxrIiSHIASW
-----END CERTIFICATE REQUEST-----
