Certificate Request:
    Data:
        Version: 1 (0x0)
        Subject: C = FR, O = NodeOPCUA, CN = NodeOPCUA
        Subject Public Key Info:
            Public Key Algorithm: rsaEncryption
                Public-Key: (2048 bit)
                Modulus:
                    00:a7:19:77:c3:a2:f0:99:3f:72:d6:c7:18:9d:4e:
                    31:7d:cb:9f:fc:5f:40:03:fe:44:bc:40:a0:c8:2c:
                    11:ab:c0:33:76:b4:87:81:1e:1a:5c:78:17:a3:69:
                    07:46:d4:53:c3:e0:4d:7a:7d:9b:a4:68:36:0f:d2:
                    94:94:2f:a5:08:92:b9:1d:f2:20:33:37:8e:27:f1:
                    d4:85:6e:e1:39:2e:ee:31:66:a3:c3:c2:a4:ea:9b:
                    af:5e:94:bd:f7:0a:ea:71:92:92:a0:2b:af:2c:02:
                    52:c9:0e:6f:cc:be:33:a7:aa:f5:fc:e5:20:3c:60:
                    58:76:2f:22:7f:db:08:2e:db:ec:44:82:7b:e7:4e:
                    02:33:e0:57:58:56:87:1e:d6:ac:42:c9:ca:ff:62:
                    db:1b:f6:48:16:54:70:c2:45:00:14:8b:a3:38:42:
                    03:b9:68:bb:c9:b9:3e:f1:c0:14:55:40:37:e2:3f:
                    11:b5:8c:bf:d2:5d:d4:5b:d5:65:8e:66:9a:75:89:
                    22:a4:37:c5:68:c1:47:5f:5a:3a:5b:95:09:0c:fe:
                    d9:1b:a5:7b:9a:45:94:c3:c0:cb:fe:9f:91:ec:11:
                    18:ec:24:56:7b:06:1f:a5:a5:44:ec:e5:d9:47:2a:
                    e4:56:51:8c:ce:6e:7a:f3:d9:6b:55:df:05:39:b2:
                    4b:01
                Exponent: 65537 (0x10001)
        Attributes:
            Requested Extensions:
                X509v3 Basic Constraints: 
                    CA:FALSE
                X509v3 Key Usage: critical
                    Certificate Sign, CRL Sign
                X509v3 Subject Alternative Name: 
                    URI:urn:ramses-linux:NodeOPCUA-DiscoveryServer, DNS:ramses-linux, IP Address:127.0.0.1
    Signature Algorithm: sha256WithRSAEncryption
    Signature Value:
        62:9d:50:49:f0:d1:6a:3b:33:92:27:cc:37:b2:6a:a8:02:e4:
        ac:21:8f:64:b3:26:29:85:e4:73:58:cf:a4:37:5a:05:d6:eb:
        2a:7e:df:92:41:0e:4e:7a:51:a3:b3:bb:0a:d3:71:76:a2:4d:
        77:87:03:59:17:ea:e3:a6:d3:4c:eb:83:c6:80:48:78:33:44:
        e6:23:62:56:45:ea:7a:3c:44:c3:97:b3:e5:89:27:90:3d:af:
        72:45:97:36:53:77:07:ee:e4:7a:65:40:c7:5d:95:f7:4e:f5:
        a7:70:da:b3:e5:61:19:f3:53:7b:f1:28:50:5d:e7:44:3b:ef:
        8a:fa:3b:b8:ff:e9:a8:bc:10:d7:e6:b2:88:38:bc:d4:03:96:
        a3:a5:98:34:31:ef:40:4f:d9:33:69:b2:45:da:9c:66:e5:d2:
        74:55:cb:8e:cc:01:4b:a1:f4:9c:1e:ba:63:6f:50:4f:18:2f:
        71:87:c0:a9:fd:8d:ac:3b:31:e6:4a:ae:6a:b1:ed:46:f4:87:
        71:55:9a:51:a7:e2:55:d3:77:89:2b:9b:36:e7:84:78:07:e1:
        ca:ad:7c:7f:b1:e7:37:96:9c:1d:52:10:0e:b4:74:d1:55:c4:
        c8:99:1f:6a:5e:e8:ce:79:a9:2f:0f:d3:42:5f:36:95:06:74:
        3b:87:b1:02
-----BEGIN CERTIFICATE REQUEST-----
MIIC8TCCAdkCAQAwNTELMAkGA1UEBhMCRlIxEjAQBgNVBAoMCU5vZGVPUENVQTES
MBAGA1UEAwwJTm9kZU9QQ1VBMIIBIjANBgkqhkiG9w0BAQEFAAOCAQ8AMIIBCgKC
AQEApxl3w6LwmT9y1scYnU4xfcuf/F9AA/5EvECgyCwRq8AzdrSHgR4aXHgXo2kH
RtRTw+BNen2bpGg2D9KUlC+lCJK5HfIgMzeOJ/HUhW7hOS7uMWajw8Kk6puvXpS9
9wrqcZKSoCuvLAJSyQ5vzL4zp6r1/OUgPGBYdi8if9sILtvsRIJ7504CM+BXWFaH
HtasQsnK/2LbG/ZIFlRwwkUAFIujOEIDuWi7ybk+8cAUVUA34j8RtYy/0l3UW9Vl
jmaadYkipDfFaMFHX1o6W5UJDP7ZG6V7mkWUw8DL/p+R7BEY7CRWewYfpaVE7OXZ
RyrkVlGMzm5689lrVd8FObJLAQIDAQABoHcwdQYJKoZIhvcNAQkOMWgwZjAJBgNV
HRMEAjAAMA4GA1UdDwEB/wQEAwIBBjBJBgNVHREEQjBAhip1cm46cmFtc2VzLWxp
bnV4Ok5vZGVPUENVQS1EaXNjb3ZlcnlTZXJ2ZXKCDHJhbXNlcy1saW51eIcEfwAA
ATANBgkqhkiG9w0BAQsFAAOCAQEAYp1QSfDRajszkifMN7JqqALkrCGPZLMmKYXk
c1jPpDdaBdbrKn7fkkEOTnpRo7O7CtNxdqJNd4cDWRfq46bTTOuDxoBIeDNE5iNi
VkXqejxEw5ez5YknkD2vckWXNlN3B+7kemVAx12V9071p3Das+VhGfNTe/EoUF3n
RDvvivo7uP/pqLwQ1+ayiDi81AOWo6WYNDHvQE/ZM2myRdqcZuXSdFXLjswBS6H0
nB66Y29QTxgvcYfAqf2NrDsx5kquarHtRvSHcVWaUafiVdN3iSubNueEeAfhyq18
f7HnN5acHVIQDrR00VXEyJkfal7oznmpLw/TQl82lQZ0O4exAg==
-----END CERTIFICATE REQUEST-----
