Certificate Request:
    Data:
        Version: 1 (0x0)
        Subject: C = FR, O = NodeOPCUA, CN = NodeOPCUA
        Subject Public Key Info:
            Public Key Algorithm: rsaEncryption
                Public-Key: (2048 bit)
                Modulus:
                    00:b8:64:e4:23:a6:ed:ee:5f:64:51:7a:19:b1:07:
                    76:c0:99:38:1f:75:3b:e7:e1:4f:ca:58:51:2a:28:
                    33:97:e3:9b:5a:fc:3d:44:1d:42:5e:9f:2c:69:f7:
                    fa:e8:9e:14:c3:d8:42:3c:a0:61:0d:78:49:1c:dd:
                    c6:7e:0e:d5:dc:5d:28:01:67:a5:29:e2:52:75:07:
                    77:99:af:c1:32:cb:9a:1a:40:f1:8c:09:0b:c9:ce:
                    72:d6:25:5e:29:b6:b1:bb:3b:c9:56:69:a2:8d:54:
                    04:63:f5:83:39:e0:36:a4:bf:8f:91:4d:d7:81:b1:
                    b2:aa:59:c2:17:38:4e:43:90:9c:4e:f9:fa:8c:9c:
                    66:2d:2e:37:48:91:c6:c4:be:d5:f7:30:4b:67:ba:
                    83:91:79:f7:0c:f3:9e:5d:60:9c:3b:20:03:35:fd:
                    4e:2c:64:ae:24:06:81:9d:52:9a:f7:07:0b:c0:de:
                    d0:0f:93:46:fd:41:27:98:cb:40:8b:4d:15:9f:2d:
                    ad:0d:79:b6:62:43:a4:67:bc:95:e2:85:a6:b4:c0:
                    9b:25:23:09:1b:0d:b7:ad:c9:56:e5:36:9a:bc:4e:
                    fc:cd:da:c0:8c:2e:f7:b4:58:85:87:33:cb:67:a6:
                    27:27:7b:3c:44:8b:2d:65:a0:6f:61:ca:6b:53:fd:
                    d9:73
                Exponent: 65537 (0x10001)
        Attributes:
            Requested Extensions:
                X509v3 Basic Constraints: 
                    CA:FALSE
                X509v3 Key Usage: critical
                    Certificate Sign, CRL Sign
                X509v3 Subject Alternative Name: 
                    URI:urn:ramses-linux:NodeOPCUA-Server, DNS:ramses-linux, IP Address:127.0.0.1
    Signature Algorithm: sha256WithRSAEncryption
    Signature Value:
        a8:50:b3:6e:4b:0e:55:7f:6f:ec:b6:04:7a:f9:c6:e9:4d:ff:
        78:97:a0:cc:3f:e4:67:de:64:68:b2:3c:f2:d8:45:45:9d:e6:
        4d:aa:ae:5e:ab:f9:e3:f3:04:dd:56:8a:bd:b5:26:2a:d6:0a:
        9d:94:56:e2:b3:c3:68:15:5a:b8:d3:41:35:fc:f3:0c:a3:86:
        e5:23:15:4d:2a:81:e3:db:79:ce:6e:7c:d1:3c:91:70:25:eb:
        ab:1a:0c:27:f4:f5:57:6f:66:3f:55:38:85:35:71:ae:db:07:
        7d:a5:5b:fe:55:7b:9c:37:e3:4f:70:4f:16:10:29:c1:4f:eb:
        98:83:f6:9e:25:8c:56:4f:6d:7f:07:6a:71:a8:ee:e5:d9:b4:
        76:ea:b9:5f:c7:03:3b:fa:0e:25:7f:bb:db:c8:b5:27:77:d5:
        67:51:9c:f0:8a:84:a1:6d:79:02:05:7a:08:83:f6:a0:df:24:
        c5:38:54:bd:14:4f:fa:25:61:a6:b1:d2:e4:17:5b:ac:e8:56:
        91:a7:4a:02:af:54:e3:91:92:60:7a:24:9a:67:12:dc:ad:ea:
        e8:12:c3:e1:d0:40:ac:1b:07:53:d5:df:37:53:46:39:d3:7c:
        3a:84:3e:38:6e:25:3f:1c:9b:cb:8e:c1:ef:a0:09:6e:3b:85:
        10:7b:cb:6a
-----BEGIN CERTIFICATE REQUEST-----
MIIC6DCCAdACAQAwNTELMAkGA1UEBhMCRlIxEjAQBgNVBAoMCU5vZGVPUENVQTES
MBAGA1UEAwwJTm9kZU9QQ1VBMIIBIjANBgkqhkiG9w0BAQEFAAOCAQ8AMIIBCgKC
AQEAuGTkI6bt7l9kUXoZsQd2wJk4H3U75+FPylhRKigzl+ObWvw9RB1CXp8saff6
6J4Uw9hCPKBhDXhJHN3Gfg7V3F0oAWelKeJSdQd3ma/BMsuaGkDxjAkLyc5y1iVe
KbaxuzvJVmmijVQEY/WDOeA2pL+PkU3XgbGyqlnCFzhOQ5CcTvn6jJxmLS43SJHG
xL7V9zBLZ7qDkXn3DPOeXWCcOyADNf1OLGSuJAaBnVKa9wcLwN7QD5NG/UEnmMtA
i00Vny2tDXm2YkOkZ7yV4oWmtMCbJSMJGw23rclW5TaavE78zdrAjC73tFiFhzPL
Z6YnJ3s8RIstZaBvYcprU/3ZcwIDAQABoG4wbAYJKoZIhvcNAQkOMV8wXTAJBgNV
HRMEAjAAMA4GA1UdDwEB/wQEAwIBBjBABgNVHREEOTA3hiF1cm46cmFtc2VzLWxp
bnV4Ok5vZGVPUENVQS1TZXJ2ZXKCDHJhbXNlcy1saW51eIcEfwAAATANBgkqhkiG
9w0BAQsFAAOCAQEAqFCzbksOVX9v7LYEevnG6U3/eJegzD/kZ95kaLI88thFRZ3m
TaquXqv54/ME3VaKvbUmKtYKnZRW4rPDaBVauNNBNfzzDKOG5SMVTSqB49t5zm58
0TyRcCXrqxoMJ/T1V29mP1U4hTVxrtsHfaVb/lV7nDfjT3BPFhApwU/rmIP2niWM
Vk9tfwdqcaju5dm0duq5X8cDO/oOJX+728i1J3fVZ1Gc8IqEoW15AgV6CIP2oN8k
xThUvRRP+iVhprHS5BdbrOhWkadKAq9U45GSYHokmmcS3K3q6BLD4dBArBsHU9Xf
N1NGOdN8OoQ+OG4lPxyby47B76AJbjuFEHvLag==
-----END CERTIFICATE REQUEST-----
