Certificate Request:
    Data:
        Version: 1 (0x0)
        Subject: C = FR, O = NodeOPCUA, CN = NodeOPCUA
        Subject Public Key Info:
            Public Key Algorithm: rsaEncryption
                Public-Key: (3072 bit)
                Modulus:
                    00:b9:41:85:6d:5e:0f:bd:25:3a:d5:f2:32:8d:e3:
                    55:a9:91:64:7c:1f:40:be:2f:e2:f5:5f:df:7c:ed:
                    30:0a:6b:16:d1:cd:6d:24:5a:dc:be:93:25:85:82:
                    6f:c3:65:13:5b:ca:74:08:6c:aa:c1:8f:14:2a:19:
                    f6:18:6e:c7:65:fe:83:bc:af:de:dd:24:e3:39:df:
                    c0:51:55:46:bb:46:0d:1d:17:3f:52:ae:81:d1:ec:
                    05:51:66:6f:51:50:d0:19:32:e2:12:b6:d5:73:3f:
                    49:ab:20:3f:b3:3b:a1:ce:8c:cb:d4:8b:6e:69:44:
                    3a:d5:d7:57:67:5b:97:cd:b7:b7:cd:40:a1:7d:d8:
                    46:d5:ef:e3:f9:f4:fd:47:82:c9:8a:f2:8f:ad:c3:
                    ac:9a:ed:2f:77:c6:6d:99:8e:98:df:15:f2:c8:19:
                    b6:42:ce:c2:ec:8e:de:f8:f7:9b:44:8a:81:cb:bf:
                    65:2b:91:14:ad:f5:3c:6c:fb:6b:03:5c:49:f3:4b:
                    bb:b3:83:86:7b:cb:f9:47:f6:41:7e:1d:29:3c:76:
                    00:48:cc:07:13:73:0b:e7:47:1d:89:92:ca:9f:9f:
                    56:94:3e:30:49:8b:be:10:2e:75:e0:f2:5f:bf:02:
                    96:06:91:8f:1f:2e:aa:a3:ab:15:04:be:ea:1d:90:
                    be:2b:07:cb:85:4f:9e:b3:08:bd:f3:b4:89:b1:db:
                    2f:f2:2f:85:86:9f:49:80:a5:f8:bf:26:a5:21:c2:
                    85:86:40:c5:81:9d:27:6d:fa:82:c4:e2:9a:4c:53:
                    a3:c5:05:ed:b0:97:4c:e9:83:7a:8c:43:39:ad:e3:
                    cc:c4:b4:a8:82:fd:5c:dc:58:86:39:05:36:41:08:
                    41:67:56:18:ea:eb:48:bd:56:79:b0:c6:5a:33:f4:
                    bd:b0:8f:ba:2b:8d:ad:24:32:a6:38:06:f5:9f:ab:
                    e6:89:30:2d:7e:23:94:34:cb:7e:85:52:65:58:85:
                    60:97:c8:8d:03:b0:1a:0c:22:4d
                Exponent: 65537 (0x10001)
        Attributes:
            Requested Extensions:
                X509v3 Basic Constraints: 
                    CA:FALSE
                X509v3 Key Usage: critical
                    Certificate Sign, CRL Sign
                X509v3 Subject Alternative Name: 
                    URI:urn:ramses-linux:NodeOPCUA-Server, DNS:ramses-linux, IP Address:127.0.0.1
    Signature Algorithm: sha256WithRSAEncryption
    Signature Value:
        40:2b:34:fc:67:48:07:20:df:16:30:a5:7c:d1:1f:7c:d9:ec:
        47:5a:a8:e6:6c:c2:5b:ca:2c:68:4e:5b:a9:c2:32:d1:5a:3f:
        44:70:45:73:45:83:df:72:e0:ce:5b:8f:2c:23:6d:4d:3f:66:
        36:36:d5:14:0e:14:45:02:78:7c:f5:41:83:f5:d2:6f:af:0c:
        e7:7c:00:5e:f9:16:d5:33:d5:8d:26:d7:ab:ac:9e:ea:bc:91:
        99:46:b5:e0:14:e3:2f:79:7c:ed:15:e8:96:e9:1f:e4:2d:d9:
        8c:aa:29:e5:66:bd:b0:4f:33:9a:82:b4:a3:2a:d3:9a:1a:ed:
        de:85:c2:55:6c:57:79:fb:84:30:a1:6d:74:e1:43:ba:70:f1:
        40:66:5e:6f:d3:4f:59:e9:ef:c5:c3:68:b2:61:28:b1:3c:24:
        31:9a:62:32:de:e3:ac:1a:48:7a:f1:f4:58:1a:ec:f1:12:5f:
        c8:80:2f:75:73:1f:99:a2:6c:18:95:f5:b4:ac:80:2d:27:7b:
        c1:ba:43:30:2c:10:78:fc:5f:ed:cc:49:c4:c9:ba:09:14:c5:
        6e:e5:ca:d0:d7:f3:25:37:57:be:4d:73:37:8c:8b:dd:64:ac:
        36:f2:39:65:c7:71:98:63:2a:1a:1a:ef:ea:d3:b3:5d:e2:ae:
        79:e5:be:32:46:75:53:49:d1:be:4e:3d:dc:d6:a6:2f:e5:c1:
        d9:be:cb:5d:fb:16:15:f3:44:65:86:59:51:44:5f:75:a6:b7:
        60:80:62:bd:d7:97:43:bc:00:37:14:93:1b:87:9e:f2:99:aa:
        40:80:96:f9:ef:bc:14:67:4f:fc:aa:68:45:f4:36:c8:38:64:
        78:f6:50:4d:ec:1d:33:ac:bc:85:6f:1f:8e:91:54:0b:50:84:
        ed:fc:37:4b:97:3d:33:75:4c:e7:db:7b:9d:85:9a:01:ad:da:
        61:0f:e6:b5:70:53:cb:cc:be:66:17:a2:63:af:3e:42:25:d3:
        df:d6:f3:0d:97:12
-----BEGIN CERTIFICATE REQUEST-----
MIID6DCCAlACAQAwNTELMAkGA1UEBhMCRlIxEjAQBgNVBAoMCU5vZGVPUENVQTES
MBAGA1UEAwwJTm9kZU9QQ1VBMIIBojANBgkqhkiG9w0BAQEFAAOCAY8AMIIBigKC
AYEAuUGFbV4PvSU61fIyjeNVqZFkfB9Avi/i9V/ffO0wCmsW0c1tJFrcvpMlhYJv
w2UTW8p0CGyqwY8UKhn2GG7HZf6DvK/e3STjOd/AUVVGu0YNHRc/Uq6B0ewFUWZv
UVDQGTLiErbVcz9JqyA/szuhzozL1ItuaUQ61ddXZ1uXzbe3zUChfdhG1e/j+fT9
R4LJivKPrcOsmu0vd8ZtmY6Y3xXyyBm2Qs7C7I7e+PebRIqBy79lK5EUrfU8bPtr
A1xJ80u7s4OGe8v5R/ZBfh0pPHYASMwHE3ML50cdiZLKn59WlD4wSYu+EC514PJf
vwKWBpGPHy6qo6sVBL7qHZC+KwfLhU+eswi987SJsdsv8i+Fhp9JgKX4vyalIcKF
hkDFgZ0nbfqCxOKaTFOjxQXtsJdM6YN6jEM5rePMxLSogv1c3FiGOQU2QQhBZ1YY
6utIvVZ5sMZaM/S9sI+6K42tJDKmOAb1n6vmiTAtfiOUNMt+hVJlWIVgl8iNA7Aa
DCJNAgMBAAGgbjBsBgkqhkiG9w0BCQ4xXzBdMAkGA1UdEwQCMAAwDgYDVR0PAQH/
BAQDAgEGMEAGA1UdEQQ5MDeGIXVybjpyYW1zZXMtbGludXg6Tm9kZU9QQ1VBLVNl
cnZlcoIMcmFtc2VzLWxpbnV4hwR/AAABMA0GCSqGSIb3DQEBCwUAA4IBgQBAKzT8
Z0gHIN8WMKV80R982exHWqjmbMJbyixoTlupwjLRWj9EcEVzRYPfcuDOW48sI21N
P2Y2NtUUDhRFAnh89UGD9dJvrwznfABe+RbVM9WNJterrJ7qvJGZRrXgFOMveXzt
FeiW6R/kLdmMqinlZr2wTzOagrSjKtOaGu3ehcJVbFd5+4QwoW104UO6cPFAZl5v
009Z6e/Fw2iyYSixPCQxmmIy3uOsGkh68fRYGuzxEl/IgC91cx+ZomwYlfW0rIAt
J3vBukMwLBB4/F/tzEnEyboJFMVu5crQ1/MlN1e+TXM3jIvdZKw28jllx3GYYyoa
Gu/q07Nd4q555b4yRnVTSdG+Tj3c1qYv5cHZvstd+xYV80RlhllRRF91prdggGK9
15dDvAA3FJMbh57ymapAgJb577wUZ0/8qmhF9DbIOGR49lBN7B0zrLyFbx+OkVQL
UITt/DdLlz0zdUzn23udhZoBrdphD+a1cFPLzL5mF6Jjrz5CJdPf1vMNlxI=
-----END CERTIFICATE REQUEST-----
