Certificate Request:
    Data:
        Version: 1 (0x0)
        Subject: C = FR, O = NodeOPCUA, CN = NodeOPCUA
        Subject Public Key Info:
            Public Key Algorithm: rsaEncryption
                Public-Key: (4096 bit)
                Modulus:
                    00:ca:7e:ca:14:81:de:d0:e0:a6:e8:4a:1d:a1:05:
                    18:fa:da:0c:68:cc:3d:4b:e5:18:f8:18:b6:83:f8:
                    f8:fe:5f:0e:ea:ba:05:50:60:07:c4:5a:ca:72:ea:
                    e8:a1:34:a6:04:fc:4b:42:78:d0:8c:b8:28:04:c0:
                    f2:85:2b:f6:e6:77:61:f3:01:cb:2e:e7:c2:73:0c:
                    b1:7a:26:bf:ba:46:13:44:ee:7b:36:fe:31:86:13:
                    0e:85:82:6b:76:22:62:c2:ba:e7:e6:d2:c7:71:3d:
                    de:08:8f:8e:01:1c:7d:d9:3d:4c:c6:4a:8c:1c:f1:
                    f5:80:a0:71:51:b9:3b:5b:48:af:fa:57:75:0b:14:
                    ee:5a:c1:0b:90:33:6e:f7:81:b8:1e:a0:f4:a2:1f:
                    77:8f:c5:2b:e7:77:1b:30:a8:9d:53:74:0c:15:61:
                    90:b4:0e:71:b2:6a:e4:c4:a9:ba:b4:79:c8:4f:79:
                    52:d3:4a:c6:33:e3:a4:bb:9e:ea:c7:fa:a7:39:70:
                    3d:0d:93:3a:fa:58:3e:69:49:e7:aa:dd:5e:54:0d:
                    16:69:60:ef:0a:6a:99:cd:23:4e:64:e2:b4:da:8d:
                    21:43:21:16:ff:d1:12:f5:6f:00:da:63:04:c9:16:
                    ce:3e:2f:f5:8b:60:a2:1d:fd:ee:34:e1:ce:21:3d:
                    4b:dd:2d:20:10:90:03:dd:d7:cb:7b:ba:29:a4:6e:
                    91:07:4a:20:25:0f:99:cb:18:3c:d8:66:cb:0d:5e:
                    86:2e:fc:92:4f:da:40:ff:b6:c0:e9:87:2d:cf:74:
                    4a:39:89:88:00:a3:d7:61:24:ca:5b:b0:05:e4:34:
                    f9:f8:dd:74:40:b8:1e:b9:6f:9c:e8:5f:4b:c4:22:
                    2f:8b:82:97:0d:84:d6:08:21:50:c0:4a:b3:38:f9:
                    79:11:88:33:ee:b8:a2:8e:9e:84:4f:1e:27:16:4b:
                    d7:fb:d2:0e:15:29:25:d3:bd:e1:fb:18:4e:76:be:
                    10:98:71:d9:b1:b9:b9:30:fb:a2:81:be:5f:a3:cd:
                    b4:8b:fe:52:c5:3d:e0:dc:b8:42:43:37:d7:20:db:
                    fe:1b:ab:ee:0f:e6:f0:7c:b4:5a:b0:04:07:2e:6d:
                    23:4d:66:da:62:28:9b:c8:76:e5:54:c0:38:29:d7:
                    ac:b7:35:22:80:a1:c3:4e:75:52:9d:73:ed:88:43:
                    b3:5a:f8:92:d0:83:db:eb:e1:16:77:c4:51:1f:53:
                    f7:65:9b:09:68:ef:29:e0:03:e5:e0:e6:7b:63:8f:
                    2e:99:d9:94:4b:6f:65:12:14:3a:b2:8c:a0:90:8a:
                    40:49:3e:8f:89:14:01:83:3d:43:94:93:fe:71:7f:
                    8f:f8:ab
                Exponent: 65537 (0x10001)
        Attributes:
            Requested Extensions:
                X509v3 Basic Constraints: 
                    CA:FALSE
                X509v3 Key Usage: critical
                    Certificate Sign, CRL Sign
                X509v3 Subject Alternative Name: 
                    URI:urn:ramses-linux:NodeOPCUA-Server, DNS:ramses-linux, IP Address:127.0.0.1
    Signature Algorithm: sha256WithRSAEncryption
    Signature Value:
        5d:ed:1e:6f:c8:e6:08:5a:8e:81:c6:2e:8a:9f:b8:69:b0:33:
        f9:ba:a1:03:22:15:51:af:a2:72:aa:ac:00:08:8e:53:50:55:
        a1:1a:07:a7:d1:99:64:41:63:cb:da:e0:ed:4b:3e:79:0d:2b:
        07:9d:18:b3:39:1f:b5:4e:58:0a:41:a9:52:6d:ef:4d:02:b3:
        b7:65:f6:69:6e:11:20:72:e3:0f:48:f8:20:b8:30:a8:a5:dc:
        58:bf:e2:6a:d8:d0:27:1b:2d:f7:7e:ae:39:b1:02:96:c6:d1:
        6e:78:43:5c:ed:90:fc:36:0c:d6:d8:7a:1d:11:f5:2e:fc:cc:
        0b:0f:2e:54:7f:95:70:b6:e8:be:da:2f:55:72:7d:7d:57:86:
        c3:05:56:0f:bc:ba:bf:d9:9e:75:2e:2b:d6:c6:77:df:25:93:
        2a:03:e8:6a:88:99:4e:aa:6d:4b:88:a3:df:21:dd:ec:cd:16:
        31:70:0b:9e:be:c4:62:a8:7f:ff:ed:00:77:fa:5a:a9:19:c3:
        a8:ec:1c:d7:58:d9:1f:2f:5b:d3:f4:88:ca:ad:01:98:ff:9e:
        71:4c:b9:96:c3:fe:95:94:d6:f9:d0:87:91:06:e1:17:78:84:
        e6:4e:8c:16:3a:e4:ad:28:0a:c3:92:c7:2e:51:08:43:c3:dc:
        db:16:24:c4:28:e3:d9:22:e5:d5:23:d0:c7:b4:e4:a6:cd:04:
        13:17:a2:ee:bc:1f:8b:d5:0f:d1:6f:e6:16:b9:a7:ff:1a:6e:
        5c:17:be:a6:0b:4b:f3:0d:79:3f:ea:67:ea:ae:6e:2f:2d:bc:
        7e:0e:90:76:f9:2c:b9:e3:ff:c3:88:f9:03:df:5c:33:18:ec:
        90:50:1a:9a:ba:ab:6e:c7:47:7e:1f:61:14:e8:9b:9c:4d:a0:
        36:d5:f0:1b:0d:01:34:5e:51:9a:aa:57:26:6d:48:03:58:98:
        7e:9f:80:90:7d:49:1f:f5:51:22:6e:59:21:f1:9f:92:99:dc:
        91:18:e8:29:6b:43:0a:a6:2b:a0:af:81:e3:9c:ea:2b:d8:75:
        50:da:9d:e8:1a:6a:71:7e:4e:65:8b:a1:ad:05:2c:bb:a3:9a:
        87:14:75:78:95:2c:5d:81:8c:15:22:8f:97:17:51:fc:45:46:
        3e:a1:93:76:7d:ba:a3:1b:a1:f8:29:17:2b:d2:43:62:9f:b9:
        51:8a:be:27:59:d0:24:55:dd:9a:b3:4c:65:dd:fe:0a:fd:28:
        52:b5:11:ec:b6:a8:29:87:ce:6f:77:a2:04:67:38:57:f8:41:
        5b:98:2f:50:08:40:80:71:be:9a:aa:13:93:1d:2e:48:85:5b:
        7e:1a:dc:5f:f3:eb:f8:92
-----BEGIN CERTIFICATE REQUEST-----
MIIE6DCCAtACAQAwNTELMAkGA1UEBhMCRlIxEjAQBgNVBAoMCU5vZGVPUENVQTES
MBAGA1UEAwwJTm9kZU9QQ1VBMIICIjANBgkqhkiG9w0BAQEFAAOCAg8AMIICCgKC
AgEAyn7KFIHe0OCm6EodoQUY+toMaMw9S+UY+Bi2g/j4/l8O6roFUGAHxFrKcuro
oTSmBPxLQnjQjLgoBMDyhSv25ndh8wHLLufCcwyxeia/ukYTRO57Nv4xhhMOhYJr
diJiwrrn5tLHcT3eCI+OARx92T1MxkqMHPH1gKBxUbk7W0iv+ld1CxTuWsELkDNu
94G4HqD0oh93j8Ur53cbMKidU3QMFWGQtA5xsmrkxKm6tHnIT3lS00rGM+Oku57q
x/qnOXA9DZM6+lg+aUnnqt1eVA0WaWDvCmqZzSNOZOK02o0hQyEW/9ES9W8A2mME
yRbOPi/1i2CiHf3uNOHOIT1L3S0gEJAD3dfLe7oppG6RB0ogJQ+Zyxg82GbLDV6G
LvyST9pA/7bA6Yctz3RKOYmIAKPXYSTKW7AF5DT5+N10QLgeuW+c6F9LxCIvi4KX
DYTWCCFQwEqzOPl5EYgz7riijp6ETx4nFkvX+9IOFSkl073h+xhOdr4QmHHZsbm5
MPuigb5fo820i/5SxT3g3LhCQzfXINv+G6vuD+bwfLRasAQHLm0jTWbaYiibyHbl
VMA4KdestzUigKHDTnVSnXPtiEOzWviS0IPb6+EWd8RRH1P3ZZsJaO8p4APl4OZ7
Y48umdmUS29lEhQ6soygkIpAST6PiRQBgz1DlJP+cX+P+KsCAwEAAaBuMGwGCSqG
SIb3DQEJDjFfMF0wCQYDVR0TBAIwADAOBgNVHQ8BAf8EBAMCAQYwQAYDVR0RBDkw
N4YhdXJuOnJhbXNlcy1saW51eDpOb2RlT1BDVUEtU2VydmVyggxyYW1zZXMtbGlu
dXiHBH8AAAEwDQYJKoZIhvcNAQELBQADggIBAF3tHm/I5ghajoHGLoqfuGmwM/m6
oQMiFVGvonKqrAAIjlNQVaEaB6fRmWRBY8va4O1LPnkNKwedGLM5H7VOWApBqVJt
700Cs7dl9mluESBy4w9I+CC4MKil3Fi/4mrY0CcbLfd+rjmxApbG0W54Q1ztkPw2
DNbYeh0R9S78zAsPLlR/lXC26L7aL1VyfX1XhsMFVg+8ur/ZnnUuK9bGd98lkyoD
6GqImU6qbUuIo98h3ezNFjFwC56+xGKof//tAHf6WqkZw6jsHNdY2R8vW9P0iMqt
AZj/nnFMuZbD/pWU1vnQh5EG4Rd4hOZOjBY65K0oCsOSxy5RCEPD3NsWJMQo49ki
5dUj0Me05KbNBBMXou68H4vVD9Fv5ha5p/8ablwXvqYLS/MNeT/qZ+qubi8tvH4O
kHb5LLnj/8OI+QPfXDMY7JBQGpq6q27HR34fYRTom5xNoDbV8BsNATReUZqqVyZt
SANYmH6fgJB9SR/1USJuWSHxn5KZ3JEY6ClrQwqmK6CvgeOc6ivYdVDanegaanF+
TmWLoa0FLLujmocUdXiVLF2BjBUij5cXUfxFRj6hk3Z9uqMbofgpFyvSQ2KfuVGK
vidZ0CRV3ZqzTGXd/gr9KFK1Eey2qCmHzm93ogRnOFf4QVuYL1AIQIBxvpqqE5Md
LkiFW34a3F/z6/iS
-----END CERTIFICATE REQUEST-----
