Certificate Request:
    Data:
        Version: 1 (0x0)
        Subject: C = FR, O = NodeOPCUA, CN = NodeOPCUA
        Subject Public Key Info:
            Public Key Algorithm: rsaEncryption
                Public-Key: (1024 bit)
                Modulus:
                    00:a7:d5:00:b7:85:8f:dc:40:0c:2d:fc:6f:e9:9f:
                    93:cd:85:a6:d3:eb:e0:75:91:54:3f:45:80:47:e4:
                    f6:a6:9c:99:49:57:46:8d:44:33:fb:cf:46:a2:dd:
                    cf:38:6e:5d:78:f8:dc:f6:c5:e9:bb:a2:49:e1:5a:
                    08:f1:2e:4b:35:58:3b:a9:52:f1:1c:80:99:74:2b:
                    d1:15:bd:b3:18:06:3c:1a:47:88:08:56:91:9e:4e:
                    f2:13:b2:59:53:ce:10:f0:94:41:76:57:01:28:9b:
                    4d:dc:d6:ab:37:a2:35:61:3a:84:b9:f0:9e:c2:77:
                    d1:8c:67:db:52:ac:dd:aa:db
                Exponent: 65537 (0x10001)
        Attributes:
            Requested Extensions:
                X509v3 Basic Constraints: 
                    CA:FALSE
                X509v3 Key Usage: critical
                    Certificate Sign, CRL Sign
                X509v3 Subject Alternative Name: 
                    URI:urn:ramses-linux:NodeOPCUA-Server, DNS:ramses-linux, IP Address:127.0.0.1
    Signature Algorithm: sha256WithRSAEncryption
    Signature Value:
        23:5c:f9:15:13:8d:e1:01:2f:4a:0b:44:63:2f:9a:dd:ae:17:
        53:ae:d1:89:f5:ba:3d:ce:d1:9e:4d:1b:4b:da:b1:65:4c:2a:
        2a:b3:fe:15:9e:0d:be:0c:fb:57:6d:ca:42:d8:63:c0:14:88:
        df:81:3c:ce:a6:88:25:28:ed:d6:b0:55:05:fe:19:8b:04:24:
        26:15:ed:46:14:dc:c8:3c:85:a0:14:b3:cb:8b:2a:0b:79:1c:
        7d:dc:59:07:b7:89:14:42:c7:18:86:8f:83:23:d3:f7:50:89:
        4a:97:ac:95:20:7a:b8:30:1c:51:d0:07:76:fa:60:dc:93:c6:
        93:d4
-----BEGIN CERTIFICATE REQUEST-----
MIIB4zCCAUwCAQAwNTELMAkGA1UEBhMCRlIxEjAQBgNVBAoMCU5vZGVPUENVQTES
MBAGA1UEAwwJTm9kZU9QQ1VBMIGfMA0GCSqGSIb3DQEBAQUAA4GNADCBiQKBgQCn
1QC3hY/cQAwt/G/pn5PNhabT6+B1kVQ/RYBH5PamnJlJV0aNRDP7z0ai3c84bl14
+Nz2xem7oknhWgjxLks1WDupUvEcgJl0K9EVvbMYBjwaR4gIVpGeTvITsllTzhDw
lEF2VwEom03c1qs3ojVhOoS58J7Cd9GMZ9tSrN2q2wIDAQABoG4wbAYJKoZIhvcN
AQkOMV8wXTAJBgNVHRMEAjAAMA4GA1UdDwEB/wQEAwIBBjBABgNVHREEOTA3hiF1
cm46cmFtc2VzLWxpbnV4Ok5vZGVPUENVQS1TZXJ2ZXKCDHJhbXNlcy1saW51eIcE
fwAAATANBgkqhkiG9w0BAQsFAAOBgQAjXPkVE43hAS9KC0RjL5rdrhdTrtGJ9bo9
ztGeTRtL2rFlTCoqs/4Vng2+DPtXbcpC2GPAFIjfgTzOpoglKO3WsFUF/hmLBCQm
Fe1GFNzIPIWgFLPLiyoLeRx93FkHt4kUQscYho+DI9P3UIlKl6yVIHq4MBxR0Ad2
+mDck8aT1A==
-----END CERTIFICATE REQUEST-----
