Certificate Request:
    Data:
        Version: 1 (0x0)
        Subject: C = FR, ST = IDF, L = Paris, O = Local NODE-OPCUA Certificate Authority, CN = NodeOPCUA-CA
        Subject Public Key Info:
            Public Key Algorithm: rsaEncryption
                Public-Key: (2048 bit)
                Modulus:
                    00:cc:3f:75:41:5a:01:c5:35:c0:d5:27:19:17:6b:
                    9f:e7:3d:1a:36:ad:77:e5:3e:3f:e1:c4:e3:f0:37:
                    c4:ff:53:b9:21:0a:17:b2:f4:e4:4c:0c:fd:26:3b:
                    83:0f:82:40:b7:a9:cd:5e:e6:85:de:14:17:49:2b:
                    8c:8e:65:63:a6:7e:24:01:fa:a5:c0:d2:99:1c:b4:
                    1d:7a:5d:56:ab:26:82:f1:b7:8c:85:6f:9b:6a:34:
                    08:e6:51:06:63:02:25:07:19:25:7e:03:6f:99:c1:
                    76:47:b6:60:31:f8:9f:34:5a:36:c9:1a:fa:4e:85:
                    53:29:65:93:86:aa:10:16:72:72:0e:d2:f6:f4:99:
                    3b:18:90:d6:92:e1:55:6f:11:9a:2d:9b:7a:b2:96:
                    79:cd:0c:13:6c:a6:9e:cf:a8:9d:5d:fe:9c:19:83:
                    34:09:e8:95:6a:b5:fd:8e:3b:3a:cd:c2:fd:73:7e:
                    5a:49:9b:63:01:a5:7e:90:b0:d5:99:a8:f7:2a:ff:
                    33:e1:c2:b5:37:5a:83:4a:a1:09:01:b3:3f:78:51:
                    be:ae:bf:e1:bb:51:ce:7a:4e:22:91:02:69:ef:fb:
                    f8:75:d8:7d:26:69:6d:8c:6f:d0:64:f7:4d:36:82:
                    37:ed:50:87:6c:50:d4:83:34:5a:4f:91:7e:01:2d:
                    e7:07
                Exponent: 65537 (0x10001)
        Attributes:
            Requested Extensions:
                X509v3 Basic Constraints: critical
                    CA:FALSE
                X509v3 Key Usage: 
                    Digital Signature, Non Repudiation, Key Encipherment, Data Encipherment, Key Agreement
                X509v3 Extended Key Usage: critical
                    TLS Web Server Authentication, TLS Web Client Authentication
                X509v3 Subject Alternative Name: 
                    URI:undefined
                Netscape Comment: 
                    CA Generated by Node-OPCUA Certificate utility using openssl
    Signature Algorithm: sha256WithRSAEncryption
    Signature Value:
        71:47:73:4c:ac:d9:54:6a:5f:ca:a3:b5:1f:05:62:c3:cd:20:
        56:02:67:da:ac:e4:e6:e9:90:84:f0:a7:89:07:02:0f:38:41:
        c9:3b:be:23:13:a4:1d:d8:f6:06:58:4c:91:5f:2b:a7:fc:e7:
        0d:3f:c1:3f:24:e7:21:f9:c4:36:4c:34:7e:2a:8f:66:79:4a:
        ea:21:ca:37:23:68:40:08:c6:ba:f0:fe:de:76:55:a4:f5:dc:
        f3:78:cb:85:9f:e6:46:eb:7f:39:43:e3:69:ff:70:72:92:ae:
        d9:97:93:78:ac:34:7e:97:63:72:a9:65:66:f4:e7:ec:56:6c:
        b5:46:9f:d8:fe:1c:32:48:65:81:a5:c2:b3:7c:e1:4b:ed:d0:
        ac:f8:22:f9:87:36:49:e8:fc:b1:7e:de:b5:8e:f7:da:ac:1c:
        26:47:33:25:77:34:84:e0:f0:c3:ad:77:e2:38:87:4a:a0:35:
        43:17:c5:a5:19:64:e9:29:cf:13:90:f6:86:71:28:ff:13:a6:
        ec:95:a0:f0:19:d4:8f:12:1d:c1:a2:10:c2:20:16:e6:ba:ec:
        56:75:58:5e:05:b1:69:00:85:81:90:6e:ca:34:0d:dd:64:1e:
        cf:4f:9d:6d:e0:1b:75:33:89:ac:16:e3:72:40:ec:e1:46:3e:
        52:30:b6:5d
-----BEGIN CERTIFICATE REQUEST-----
MIIDbTCCAlUCAQAwczELMAkGA1UEBhMCRlIxDDAKBgNVBAgTA0lERjEOMAwGA1UE
BxMFUGFyaXMxLzAtBgNVBAoTJkxvY2FsIE5PREUtT1BDVUEgQ2VydGlmaWNhdGUg
QXV0aG9yaXR5MRUwEwYDVQQDEwxOb2RlT1BDVUEtQ0EwggEiMA0GCSqGSIb3DQEB
AQUAA4IBDwAwggEKAoIBAQDMP3VBWgHFNcDVJxkXa5/nPRo2rXflPj/hxOPwN8T/
U7khChey9ORMDP0mO4MPgkC3qc1e5oXeFBdJK4yOZWOmfiQB+qXA0pkctB16XVar
JoLxt4yFb5tqNAjmUQZjAiUHGSV+A2+ZwXZHtmAx+J80WjbJGvpOhVMpZZOGqhAW
cnIO0vb0mTsYkNaS4VVvEZotm3qylnnNDBNspp7PqJ1d/pwZgzQJ6JVqtf2OOzrN
wv1zflpJm2MBpX6QsNWZqPcq/zPhwrU3WoNKoQkBsz94Ub6uv+G7Uc56TiKRAmnv
+/h12H0maW2Mb9Bk9002gjftUIdsUNSDNFpPkX4BLecHAgMBAAGggbQwgbEGCSqG
SIb3DQEJDjGBozCBoDAMBgNVHRMBAf8EAjAAMAsGA1UdDwQEAwID+DAgBgNVHSUB
Af8EFjAUBggrBgEFBQcDAQYIKwYBBQUHAwIwFAYDVR0RBA0wC4YJdW5kZWZpbmVk
MEsGCWCGSAGG+EIBDQQ+FjxDQSBHZW5lcmF0ZWQgYnkgTm9kZS1PUENVQSBDZXJ0
aWZpY2F0ZSB1dGlsaXR5IHVzaW5nIG9wZW5zc2wwDQYJKoZIhvcNAQELBQADggEB
AHFHc0ys2VRqX8qjtR8FYsPNIFYCZ9qs5ObpkITwp4kHAg84Qck7viMTpB3Y9gZY
TJFfK6f85w0/wT8k5yH5xDZMNH4qj2Z5SuohyjcjaEAIxrrw/t52VaT13PN4y4Wf
5kbrfzlD42n/cHKSrtmXk3isNH6XY3KpZWb05+xWbLVGn9j+HDJIZYGlwrN84Uvt
0Kz4IvmHNkno/LF+3rWO99qsHCZHMyV3NITg8MOtd+I4h0qgNUMXxaUZZOkpzxOQ
9oZxKP8TpuyVoPAZ1I8SHcGiEMIgFua67FZ1WF4FsWkAhYGQbso0Dd1kHs9PnW3g
G3UziawW43JA7OFGPlIwtl0=
-----END CERTIFICATE REQUEST-----
